target datalayout = "e-m:e-p270:32:32-p271:32:32-p272:64:64-i64:64-i128:128-f80:128-n8:16:32:64-S128"
target triple = "x86_64-pc-linux-gnu"

%struct.Vmem = type { ptr, i64, i64 }
%struct.ParseContext_ = type { %struct.TokenData, i32, %union.SourceSpan, %union.SourceSpan, ptr, %struct.Lexer }
%struct.TokenData = type { ptr, i64, %union.anon.86 }
%union.anon.86 = type { %struct.anon.89 }
%struct.anon.89 = type { %struct.Int128_, i8 }
%struct.Int128_ = type { i64, i64 }
%union.SourceSpan = type { i64 }
%struct.Lexer = type { ptr, ptr, ptr, ptr, i32, i32, ptr, ptr, ptr, %struct.TokenData, %union.SourceSpan, i32, i32 }
%struct.Ast_ = type { %union.SourceSpan, i32, i8, %union.anon.62 }
%union.anon.62 = type { %struct.AstDocDirective_ }
%struct.AstDocDirective_ = type { i8, %union.anon.65 }
%union.anon.65 = type { %struct.anon.66 }
%struct.anon.66 = type { ptr, %union.SourceSpan, i8 }
%struct.Expr_ = type { ptr, %union.SourceSpan, i16, %union.anon.30 }
%union.anon.30 = type { %struct.ExprAnySwitch }
%struct.ExprAnySwitch = type { i8, %union.anon.32 }
%union.anon.32 = type { %struct.anon.33 }
%struct.anon.33 = type { ptr, %union.SourceSpan, ptr }
%struct.AstReturnStmt = type { ptr, i32, i32, ptr }

@poisoned_ast = external global ptr, align 8
@.str.11 = private unnamed_addr constant [13 x i8] c"Expected ';'\00", align 1
@ast_arena = external global %struct.Vmem, align 8

; Function Attrs: nounwind uwtable
define internal ptr @ast_calloc() #0 {
  %1 = call ptr @vmem_alloc(ptr noundef @ast_arena, i64 noundef 48)
  ret ptr %1
}

; Function Attrs: nounwind uwtable
define internal ptr @parse_return_stmt(ptr noundef %0) #0 {
  %2 = alloca ptr, align 8
  %3 = alloca i32, align 4
  %4 = alloca ptr, align 8
  %5 = alloca i32, align 4
  %6 = alloca %union.SourceSpan, align 8
  %7 = alloca i32, align 4
  %8 = alloca ptr, align 8
  %9 = alloca ptr, align 8
  %10 = alloca ptr, align 8
  %11 = alloca i32, align 4
  %12 = alloca ptr, align 8
  %13 = alloca i32, align 4
  %14 = alloca ptr, align 8
  %15 = alloca ptr, align 8
  %16 = alloca ptr, align 8
  %17 = alloca ptr, align 8
  store ptr %0, ptr %15, align 8
  %18 = load ptr, ptr %15, align 8
  store ptr %18, ptr %10, align 8
  store i32 136, ptr %11, align 4
  %19 = load ptr, ptr %10, align 8
  call void @advance(ptr noundef %19) #4
  %20 = load ptr, ptr %15, align 8
  store ptr %20, ptr %12, align 8
  store i32 25, ptr %13, align 4
  %21 = load i32, ptr %13, align 4
  %22 = load ptr, ptr %12, align 8
  %23 = getelementptr inbounds %struct.ParseContext_, ptr %22, i32 0, i32 2
  %24 = load i64, ptr %23, align 8
  store i64 %24, ptr %6, align 8
  store i32 %21, ptr %7, align 4
  %25 = call ptr @ast_calloc()
  store ptr %25, ptr %8, align 8
  %26 = load ptr, ptr %8, align 8
  call void @llvm.memcpy.p0.p0.i64(ptr align 8 %26, ptr align 8 %6, i64 8, i1 false)
  %27 = load i32, ptr %7, align 4
  %28 = load ptr, ptr %8, align 8
  %29 = getelementptr inbounds %struct.Ast_, ptr %28, i32 0, i32 2
  %30 = trunc i32 %27 to i8
  store i8 %30, ptr %29, align 4
  %31 = load ptr, ptr %8, align 8
  store ptr %31, ptr %16, align 8
  %32 = load ptr, ptr %15, align 8
  store ptr %32, ptr %2, align 8
  store i32 9, ptr %3, align 4
  %33 = load ptr, ptr %2, align 8
  %34 = getelementptr inbounds %struct.ParseContext_, ptr %33, i32 0, i32 1
  %35 = load i32, ptr %34, align 8
  %36 = load i32, ptr %3, align 4
  %37 = icmp eq i32 %35, %36
  br i1 %37, label %60, label %38

38:                                               ; preds = %1
  %39 = load ptr, ptr %15, align 8
  %40 = call ptr @parse_expr(ptr noundef %39)
  store ptr %40, ptr %17, align 8
  %41 = load ptr, ptr %17, align 8
  store ptr %41, ptr %9, align 8
  %42 = load ptr, ptr %9, align 8
  %43 = icmp eq ptr %42, null
  br i1 %43, label %51, label %44

44:                                               ; preds = %38
  %45 = load ptr, ptr %9, align 8
  %46 = getelementptr inbounds %struct.Expr_, ptr %45, i32 0, i32 2
  %47 = load i16, ptr %46, align 8
  %48 = and i16 %47, 255
  %49 = zext i16 %48 to i32
  %50 = icmp ne i32 %49, 0
  br label %51

51:                                               ; preds = %44, %38
  %52 = phi i1 [ true, %38 ], [ %50, %44 ]
  br i1 %52, label %55, label %53

53:                                               ; preds = %51
  %54 = load ptr, ptr @poisoned_ast, align 8
  store ptr %54, ptr %14, align 8
  br label %78

55:                                               ; preds = %51
  %56 = load ptr, ptr %17, align 8
  %57 = load ptr, ptr %16, align 8
  %58 = getelementptr inbounds %struct.Ast_, ptr %57, i32 0, i32 3
  %59 = getelementptr inbounds %struct.AstReturnStmt, ptr %58, i32 0, i32 0
  store ptr %56, ptr %59, align 8
  br label %60

60:                                               ; preds = %55, %1
  br label %61

61:                                               ; preds = %60
  %62 = load ptr, ptr %15, align 8
  store ptr %62, ptr %4, align 8
  store i32 9, ptr %5, align 4
  %63 = load ptr, ptr %4, align 8
  %64 = getelementptr inbounds %struct.ParseContext_, ptr %63, i32 0, i32 1
  %65 = load i32, ptr %64, align 8
  %66 = load i32, ptr %5, align 4
  %67 = icmp eq i32 %65, %66
  br i1 %67, label %74, label %68

68:                                               ; preds = %61
  %69 = load ptr, ptr %15, align 8
  %70 = getelementptr inbounds %struct.ParseContext_, ptr %69, i32 0, i32 3
  %71 = getelementptr inbounds %union.SourceSpan, ptr %70, i32 0, i32 0
  %72 = load i64, ptr %71, align 8
  call void (i64, ptr, ...) @sema_error_at_after(i64 %72, ptr noundef @.str.11)
  %73 = load ptr, ptr @poisoned_ast, align 8
  store ptr %73, ptr %14, align 8
  br label %78

74:                                               ; preds = %61
  %75 = load ptr, ptr %15, align 8
  call void @advance(ptr noundef %75)
  br label %76

76:                                               ; preds = %74
  %77 = load ptr, ptr %16, align 8
  store ptr %77, ptr %14, align 8
  br label %78

78:                                               ; preds = %76, %68, %53
  %79 = load ptr, ptr %14, align 8
  ret ptr %79
}