; Function Attrs: nounwind uwtable
define internal fastcc ptr @parse_return_stmt(ptr noundef %0) unnamed_addr #0 {
  tail call void @advance(ptr noundef %0) #5
  %2 = getelementptr inbounds i8, ptr %0, i64 48
  %3 = load i64, ptr %2, align 8
  %4 = tail call ptr @vmem_alloc(ptr noundef nonnull @ast_arena, i64 noundef 48) #5
  store i64 %3, ptr %4, align 8
  %5 = getelementptr inbounds i8, ptr %4, i64 12
  store i8 25, ptr %5, align 4
  %6 = getelementptr inbounds i8, ptr %0, i64 40
  %7 = load i32, ptr %6, align 8
  %8 = icmp eq i32 %7, 9
  br i1 %8, label %.thread, label %9

9:                                                ; preds = %1
  %10 = tail call ptr @parse_expr(ptr noundef nonnull %0) #5
  %11 = icmp eq ptr %10, null
  br i1 %11, label %18, label %12

12:                                               ; preds = %9
  %13 = getelementptr inbounds i8, ptr %10, i64 16
  %14 = load i16, ptr %13, align 8
  %15 = and i16 %14, 255
  %.not = icmp eq i16 %15, 0
  br i1 %.not, label %16, label %18

16:                                               ; preds = %12
  %17 = load ptr, ptr @poisoned_ast, align 8
  br label %25

18:                                               ; preds = %12, %9
  %19 = getelementptr inbounds i8, ptr %4, i64 16
  store ptr %10, ptr %19, align 8
  %.pr = load i32, ptr %6, align 8
  %20 = icmp eq i32 %.pr, 9
  br i1 %20, label %.thread, label %21

21:                                               ; preds = %18
  %22 = getelementptr inbounds i8, ptr %0, i64 56
  %23 = load i64, ptr %22, align 8
  tail call void (i64, ptr, ...) @sema_error_at_after(i64 %23, ptr noundef nonnull @.str.11) #5
  %24 = load ptr, ptr @poisoned_ast, align 8
  br label %25

.thread:                                          ; preds = %1, %18
  tail call void @advance(ptr noundef nonnull %0) #5
  br label %25

25:                                               ; preds = %.thread, %21, %16
  %.0 = phi ptr [ %4, %.thread ], [ %24, %21 ], [ %17, %16 ]
  ret ptr %.0
}